(lp0
Vboring
p1
aVdisappointing
p2
aVwaste
p3
aVexcellent
p4
aVt
p5
aVdon t
p6
aVdon
p7
aVbad
p8
aVno
p9
aVyour money
p10
aVa must
p11
aVan excellent
p12
aVeasy
p13
aVnot
p14
aVgreat
p15
aVinstead
p16
aVdidn t
p17
aVdidn
p18
aVwonderful
p19
aVpoorly
p20
aVa wonderful
p21
aVa great
p22
aVi
p23
aVhighly recommend
p24
aVi don
p25
aVunfortunately
p26
aVbest
p27
aVhighly
p28
aVso
p29
aVthe best
p30
aVbeautifully
p31
aVbut
p32
aVnothing
p33
aVtwo stars
p34
aVway too
p35
aVwas
p36
aVpoor
p37
aVdid
p38
aVworst
p39
aVtoo
p40
aVi highly
p41
aVand easy
p42
aVsorry
p43
aVi m
p44
aVridiculous
p45
aVrecommend
p46
aVdisappointed
p47
aVdisappointment
p48
aVfinish
p49
aVweak
p50
aVthis i
p51
aVt make
p52
aVmakes it
p53
aVeasy to
p54
aVtoo many
p55
aVstupid
p56
aVi recommend
p57
aVnot worth
p58
aVentertaining
p59
aVgot
p60
aVmoney
p61
aVthen
p62
aVm
p63
aVlove this
p64
aVtrying
p65
aVdo with
p66
aVdoesn t
p67
aVdoesn
p68
aVenjoyable
p69
aVt even
p70
aVany of
p71
aVnot recommend
p72
aVis a
p73
aVmuch
p74
aVloved it
p75
aVflat
p76
aVhighly recommended
p77
aVloved
p78
aVmuch better
p79
aVbecause
p80
aVseems
p81
aVi was
p82
aVtrying to
p83
aVreally enjoyed
p84
aVlove
p85
aVor
p86
aVeven
p87
aVat all
p88
aVis just
p89
aVsupposed
p90
aVbetter
p91
aVlike
p92
aVperson
p93
aVvery disappointed
p94
aVto like
p95
aVso bad
p96
aVone star
p97
aVmy only
p98
aVloved this
p99
aVmy favorite
p100
aVeasily
p101
aVhad
p102
aVso i
p103
aVperson who
p104
aVhorrible
p105
aVare better
p106
aVaccept
p107
aVout of
p108
aVyour time
p109
aVand one
p110
aVcare
p111
aVthere
p112
aVme
p113
aVfavorite
p114
aVa bad
p115
aVhistory
p116
aVit seems
p117
aVimportant
p118
aVwould take
p119
aVthey do
p120
aVtown
p121
aVthe back
p122
aVnothing to
p123
aVworld
p124
aVif
p125
aVeverything
p126
aVrecommend this
p127
aVfun
p128
aVgives
p129
aVexample
p130
aVtoo long
p131
aVjust so
p132
aVis nothing
p133
aVimpression
p134
aVbe better
p135
aVbarely
p136
aVa fun
p137
aVunless
p138
aVis no
p139
aVanything
p140
aVthe worst
p141
aVi did
p142
aVwould
p143
aVbasically
p144
aVsupposed to
p145
aVa little
p146
aVgoing to
p147
aVany
p148
aVmust
p149
aVprovides
p150
aVrecommend it
p151
aVi expected
p152
aVhad no
p153
aVcare about
p154
aVwriting
p155
aVcould
p156
aVkind of
p157
aVthe real
p158
aVtreat
p159
aVpleasure
p160
aVmediocre
p161
aVhe got
p162
aVzero
p163
aVwill
p164
aVworse
p165
aVlacking
p166
aVhalf of
p167
aVstep
p168
aVskip
p169
aVglad
p170
aVi had
p171
aVinteresting
p172
aVsaying
p173
aVi ll
p174
aVhelps
p175
aVhe would
p176
aVbest of
p177
aVbe so
p178
aVwell as
p179
aVif it
p180
aVenjoyed
p181
aVis an
p182
aVno one
p183
aVand of
p184
aVthe house
p185
aVoutstanding
p186
aVnot very
p187
aVjust didn
p188
aVit if
p189
aVit didn
p190
aVimpossible to
p191
aVhave this
p192
aVelsewhere
p193
aVbeen able
p194
aVt care
p195
aVok
p196
aVnot one
p197
aVlike it
p198
aVhalf
p199
aVshare
p200
aVon their
p201
aVnot even
p202
aVsome good
p203
aVseveral years
p204
aVi purchased
p205
aVgot the
p206
aV70
p207
aVseem to
p208
aVif they
p209
aVexperience
p210
aVhave been
p211
aVreason
p212
aVseems to
p213
aVlives
p214
aVfor this
p215
aVrecommended
p216
aVreading the
p217
aVtell you
p218
aVsolid
p219
aVawesome
p220
aVare just
p221
aVwas so
p222
aVguess
p223
aV100
p224
aVshows
p225
aVwhy
p226
aVby the
p227
aVtotally
p228
aVopen
p229
aVname
p230
aVfood
p231
aVcould have
p232
aVrequired
p233
aVhas no
p234
aVgift
p235
aVgot a
p236
aVt get
p237
aVbooks
p238
aVtired
p239
aVhit
p240
aVclaim
p241
aVfan
p242
aVbeautiful
p243
aVobvious
p244
aVpay for
p245
aVfavorites
p246
aVi enjoyed
p247
aVinstead of
p248
aVjust
p249
aVget
p250
aVand his
p251
aVwrong
p252
aVwas expecting
p253
aVto compare
p254
aVthat kind
p255
aVtexas
p256
aVso glad
p257
aVqueen
p258
aVonline
p259
aVonce you
p260
aVnot disappointed
p261
aVmanage
p262
aVin there
p263
aVhouse and
p264
aVdressed
p265
aVdisgusting
p266
aVclosed
p267
aVbought a
p268
aVand being
p269
aV4 stars
p270
aVmost of
p271
aVsomeone
p272
aVcase
p273
aVall i
p274
aVwhatever
p275
aVnature
p276
aVthe end
p277
aVbecause i
p278
aVlife
p279
aVit down
p280
aVbut there
p281
aVi thought
p282
aVwas just
p283
aVthe art
p284
aVlove it
p285
aVjust don
p286
aVi kept
p287
aVgotten
p288
aVat best
p289
aVseriously
p290
aVsad
p291
aVof our
p292
aVm not
p293
aVbecause the
p294
aVa book
p295
aVrunning
p296
aVnone of
p297
aVif this
p298
aVhelped
p299
aVbuying
p300
aVand an
p301
aVtrash
p302
aVprovided
p303
aVokay
p304
aVi wouldn
p305
aVbut then
p306
aVi love
p307
aVthan
p308
aVwhere
p309
aVwith no
p310
aVsoon
p311
aVand how
p312
aVboth
p313
aVreally
p314
aVway to
p315
aVlack
p316
aVi got
p317
aVfor all
p318
aVtell
p319
aVto really
p320
aVthe women
p321
aVour own
p322
aVinstead i
p323
aVi might
p324
aVhelped me
p325
aVgreat for
p326
aVcome on
p327
aVbest in
p328
aVaddress
p329
aVa gift
p330
aVbelieve
p331
aVself
p332
aVhave
p333
aVt like
p334
aVspecial
p335
aVkeeps
p336
aVsocial
p337
aVit would
p338
aVmr
p339
aVdo
p340
aVprocess
p341
aVamazing
p342
aVguy
p343
aVwould have
p344
aVthin
p345
aVstraight
p346
aVcut
p347
aVwill give
p348
aVwell done
p349
aVwas surprised
p350
aVwalks
p351
aVupdated
p352
aVto stand
p353
aVto mind
p354
aVto meet
p355
aVthe bottom
p356
aVthat our
p357
aVsale
p358
aVs too
p359
aVprepared to
p360
aVpeople were
p361
aVfrom there
p362
aVfor another
p363
aVestablishment
p364
aVdefinitely recommend
p365
aVbusiness and
p366
aVburned
p367
aVa 5
p368
aVafter
p369
aVwhile i
p370
aVseems like
p371
aVreturn to
p372
aVrealized
p373
aVpurchased
p374
aVother hand
p375
aVmaybe i
p376
aVi give
p377
aVfault
p378
aVthe process
p379
aVsadly
p380
aVhave no
p381
aVbother
p382
aVtoo much
p383
aVbelieve that
p384
aVwish i
p385
aVwas disappointed
p386
aVto its
p387
aVtime on
p388
aVt understand
p389
aVit again
p390
aVis worth
p391
aVhelp you
p392
aVcompare
p393
aVhate
p394
aVwouldn t
p395
aVwouldn
p396
aVto anyone
p397
aVknow
p398
aVgive it
p399
aValso
p400
aVthe whole
p401
aVwhole
p402
aVto be
p403
aVt know
p404
aVhome
p405
aVwhat a
p406
aVshould have
p407
aVsave
p408
aVfan of
p409
aVable
p410
aVwhat i
p411
aVsimple
p412
aVfound the
p413
aVthat can
p414
aVawful
p415
aVkind
p416
aVcompletely
p417
aVtoday
p418
aVmaybe
p419
aVvisits
p420
aVvery few
p421
aVto speak
p422
aVto begin
p423
aVthe year
p424
aVthe others
p425
aVsure to
p426
aVplans
p427
aVlistening
p428
aVi learned
p429
aVdid i
p430
aVcalling
p431
aVbucks
p432
aVare too
p433
aVand interesting
p434
aVand got
p435
aVabout to
p436
aV60
p437
aVend
p438
aValready
p439
aVthat will
p440
aVt think
p441
aVstarting
p442
aVplaces
p443
aVi wanted
p444
aVhas the
p445
aVrest
p446
aVcertain
p447
aVas if
p448
aVhard to
p449
aVanyone who
p450
aVwanted to
p451
aVslow
p452
aVat times
p453
aVon to
p454
aVfor my
p455
aVas he
p456
aVyou re
p457
aVsick
p458
aVneither
p459
aVmy time
p460
aVhonestly
p461
aVam not
p462
aVgoing
p463
aVmore
p464
aVhard
p465
aVentire
p466
aVthis to
p467
aVthe years
p468
aVt recommend
p469
aVstars because
p470
aVrare
p471
aVjoy
p472
aVglad i
p473
aVfirst of
p474
aVfamily and
p475
aVdo i
p476
aVcool
p477
aVcomplaint
p478
aVcircle
p479
aVaround in
p480
aVa review
p481
aVa quick
p482
aVnearly
p483
aVcould be
p484
aVwhat s
p485
aVolder
p486
aVi mean
p487
aVas to
p488
aVanyway
p489
aVactual
p490
aVonly thing
p491
aVon it
p492
aVentertainment
p493
aVadmit that
p494
aVbe
p495
aVnever
p496
aVactually
p497
aVthere are
p498
aVmention
p499
aVafter reading
p500
a.