(lp0
Veasy
p1
aVgreat
p2
aVlove
p3
aVeasy to
p4
aVnot
p5
aVwaste
p6
aVwas
p7
aVbest
p8
aVexcellent
p9
aVlove this
p10
aVperfect
p11
aVreturned
p12
aVreturn
p13
aVyour money
p14
aVlove it
p15
aVi love
p16
aVdisappointed
p17
aVbroke
p18
aVafter
p19
aVlittle
p20
aVpoor
p21
aVa great
p22
aVvery disappointed
p23
aVtold
p24
aVterrible
p25
aVhorrible
p26
aVdisappointment
p27
aVclean
p28
aVthe best
p29
aVdisappointing
p30
aVso far
p31
aVi was
p32
aVbad
p33
aVagain
p34
aVtried to
p35
aVit was
p36
aVworst
p37
aVawesome
p38
aVstarted
p39
aVfavorite
p40
aVvalue
p41
aVwould not
p42
aVfamily
p43
aVback
p44
aVreturning
p45
aVpoorly
p46
aVperfect for
p47
aVmoney
p48
aVhighly
p49
aVoff
p50
aVstarted to
p51
aVyou can
p52
aVdo not
p53
aVworked
p54
aVgreat for
p55
aVstores
p56
aVloves
p57
aVtried
p58
aVnot recommend
p59
aVsize
p60
aVfar
p61
aVstopped
p62
aVcan be
p63
aVamazing
p64
aVworks
p65
aVhighly recommend
p66
aVis perfect
p67
aVoff i
p68
aVadd
p69
aVwas not
p70
aVperfectly
p71
aVwell
p72
aVprice
p73
aVthe worst
p74
aVis not
p75
aVlarge
p76
aVcooking
p77
aVt work
p78
aVare great
p79
aVto return
p80
aVnot even
p81
aVmy favorite
p82
aVdoes not
p83
aVbuy
p84
aVfailed
p85
aVfantastic
p86
aVi tried
p87
aVbeautifully
p88
aVwonderful
p89
aVwork
p90
aVidea
p91
aVcan
p92
aVand was
p93
aVof money
p94
aVwell worth
p95
aVkeeps
p96
aVthis is
p97
aVwas told
p98
aVgreat little
p99
aVfabulous
p100
aVa disappointment
p101
aVon this
p102
aVunfortunately
p103
aVneed
p104
aVtook
p105
aVsend
p106
aVheavy
p107
aVservice
p108
aVve
p109
aVabsolutely
p110
aVthe money
p111
aVmonth
p112
aVyou will
p113
aVcheap
p114
aVyou won
p115
aVtold me
p116
aVplenty
p117
aVoutstanding
p118
aVbroken
p119
aVpleased
p120
aVa little
p121
aVit s
p122
aVmy money
p123
aVfollowed
p124
aVan excellent
p125
aVtimes
p126
aVdifficult
p127
aVis great
p128
aVget
p129
aVreceived
p130
aVpain
p131
aVnot worth
p132
aVfirst
p133
aVcustomer service
p134
aVthought
p135
aVyour time
p136
aVinformation
p137
aVhomemade
p138
aVawful
p139
aVworking
p140
aVthought it
p141
aVthe past
p142
aVspecial
p143
aVfrench
p144
aVeverywhere
p145
aVconvenient
p146
aVbased on
p147
aVworry about
p148
aVto send
p149
aVquickly and
p150
aVis a
p151
aVi highly
p152
aVi called
p153
aVcome out
p154
aVdishes
p155
aVnice
p156
aVplastic
p157
aVpast
p158
aVexperience
p159
aVcomes
p160
aVthe price
p161
aVcustomer
p162
aVelse
p163
aVbut
p164
aVthin and
p165
aVshame
p166
aVquiet and
p167
aVplenty of
p168
aVor you
p169
aVmaybe i
p170
aVi ended
p171
aVbe disappointed
p172
aVand well
p173
aVa must
p174
aV1 star
p175
aVserving
p176
aVgreat and
p177
aVwould
p178
aVs
p179
aVwhat
p180
aVdidn t
p181
aVdidn
p182
aVit would
p183
aVi ve
p184
aVmost
p185
aVnot only
p186
aVimpossible to
p187
aVsent
p188
aVworse
p189
aVevery
p190
aVi thought
p191
aVthe most
p192
aVto get
p193
aVweeks
p194
aVkitchen
p195
aVuse
p196
aVworry
p197
aVthen it
p198
aVquiet
p199
aVwhat a
p200
aVany
p201
aVwas really
p202
aVve found
p203
aVon me
p204
aVlucky
p205
aVis hard
p206
aVgreat job
p207
aVefficient
p208
aVcrap
p209
aVbeat the
p210
aVare better
p211
aVagain i
p212
aVnot get
p213
aVi should
p214
aVbeautiful and
p215
aVown
p216
aVsimple
p217
aVended
p218
aVcuts
p219
aVbutter
p220
aVnicely
p221
aVdifficult to
p222
aVcompany
p223
aVand easy
p224
aVand you
p225
aVclean and
p226
aVfact that
p227
aVexcited
p228
aVgoing
p229
aVdid not
p230
aVi could
p231
aVlove the
p232
aVwe have
p233
aVis that
p234
aVit back
p235
aVto your
p236
aVbeat
p237
aVmonths
p238
aVstuck
p239
aVpleased with
p240
aVt have
p241
aVit took
p242
aVt make
p243
aVsizes
p244
aVsecond time
p245
aVremember
p246
aVmy only
p247
aVmistake
p248
aVis going
p249
aVand clean
p250
aVvery happy
p251
aVa large
p252
aVgreat but
p253
aVafter the
p254
aVthe first
p255
aVto use
p256
aVwould never
p257
aVwhat was
p258
aVwell they
p259
aVwe thought
p260
aVwas only
p261
aVwaiting for
p262
aVve only
p263
aVtomorrow
p264
aVthought that
p265
aVone or
p266
aVis amazing
p267
aVi prefer
p268
aVi absolutely
p269
aVfew times
p270
aVcomplaint is
p271
aVat an
p272
aVa family
p273
aV20 minutes
p274
aVwas very
p275
aVthen
p276
aVsave
p277
aVcalled
p278
aVbeautiful
p279
aVthe only
p280
aVthese
p281
aVvery
p282
aVtry
p283
aVhappy
p284
aVthere
p285
aVi like
p286
aVgoing to
p287
aVthe same
p288
aVwish i
p289
aVsoon
p290
aVprice i
p291
aVno matter
p292
aVback and
p293
aVapparently
p294
aVi bought
p295
aVmakes
p296
aVlarger
p297
aVedge
p298
aVbeware
p299
aVneed to
p300
aVis very
p301
aVis the
p302
aV3
p303
aVwould have
p304
aVeveryone
p305
aVwhere the
p306
aVended up
p307
aVcollection
p308
aVthe problem
p309
aVsmooth
p310
aVmay be
p311
aVbased
p312
aVa different
p313
aVthey are
p314
aVeven
p315
aVs great
p316
aVonly complaint
p317
aVis beautiful
p318
aVi loved
p319
aVhad any
p320
aVgreat value
p321
aVfor all
p322
aVabsolutely love
p323
aV2
p324
aVof my
p325
aVyou don
p326
aVbit of
p327
aVfirst time
p328
aVback to
p329
aVall over
p330
aVwrote
p331
aVwould highly
p332
aVwork at
p333
aVwinner
p334
aVwill try
p335
aVvery comfortable
p336
aVunfortunately i
p337
aVthey come
p338
aVthat to
p339
aVt beat
p340
aVsomeone else
p341
aVseems like
p342
aVseasoning
p343
aVreceive
p344
aVor in
p345
aVolive
p346
aVok but
p347
aVmuch of
p348
aVliterally
p349
aVit made
p350
aVit got
p351
aVhow can
p352
aVhouse and
p353
aVhealth
p354
aVfavor
p355
aVeven better
p356
aVenjoying
p357
aVcorn
p358
aVcomfortable and
p359
aVbad it
p360
aVback for
p361
aVattempt
p362
aVappreciate
p363
aVand try
p364
aV4 stars
p365
aVthe
p366
aVto work
p367
aVit did
p368
aVmy
p369
aVand
p370
aVa new
p371
aVmachine
p372
aVdecided
p373
aVthing
p374
aVthe second
p375
aVsolid
p376
aVguess
p377
aVburned
p378
aVrecommend
p379
aValmost
p380
aVthe box
p381
aVve never
p382
aVnot what
p383
aVnot too
p384
aVdouble
p385
aVit you
p386
aVapart
p387
aValso the
p388
aVa month
p389
aVfeature
p390
aVvegetables
p391
aVstir
p392
aVimpressed
p393
aVfoods
p394
aVcomfortable
p395
aVbarely
p396
aVand has
p397
aVand for
p398
aVquality and
p399
aVof their
p400
aVit didn
p401
aVdecided to
p402
aVon the
p403
aVever
p404
aVi had
p405
aVbrand
p406
aVand is
p407
aVa nice
p408
aVextra
p409
aVetc
p410
aVthe fact
p411
aVare very
p412
aVway too
p413
aVunique
p414
aVtoo bad
p415
aVthe long
p416
aVmuch i
p417
aVhalf of
p418
aVcondition
p419
aVcan tell
p420
aVadded
p421
aVuntil
p422
aVis
p423
aVyou ll
p424
aVpurchasing
p425
aVhaven t
p426
aVhaven
p427
aVimpossible
p428
aVuses
p429
aVwhen the
p430
aVtea
p431
aVbetween the
p432
aVon
p433
aVsecond
p434
aVwhen i
p435
aVword
p436
aVwonderfully
p437
aVwe will
p438
aVwas supposed
p439
aVvs
p440
aVunusual
p441
aVtold that
p442
aVthink they
p443
aVthem at
p444
aVthe typical
p445
aVthe pasta
p446
aVthe office
p447
aVthe great
p448
aVthan what
p449
aVtea and
p450
aVruined
p451
aVpost
p452
aVperson who
p453
aVon line
p454
aVolive oil
p455
aVoff a
p456
aVnot enough
p457
aVmention the
p458
aVliked it
p459
aVlast time
p460
aVlarger than
p461
aVjust for
p462
aVjoke
p463
aVis as
p464
aVi almost
p465
aVgold
p466
aVfunny
p467
aVfor 4
p468
aVfavor and
p469
aVdefinitely recommend
p470
aVdeal with
p471
aVcontemporary
p472
aVcome in
p473
aVcoffee was
p474
aVclassy
p475
aVchecking
p476
aVcandy
p477
aVcan have
p478
aVcan do
p479
aVbut so
p480
aVbuilding
p481
aVattempt to
p482
aVas for
p483
aVaffordable
p484
aVaddress
p485
aVadd a
p486
aVa winner
p487
aVa 2
p488
aVa 1
p489
aV2 stars
p490
aVinstead
p491
aVsingle
p492
aVnow and
p493
aVmess
p494
aVit seems
p495
aVzero
p496
aVwaiting
p497
aVthrew
p498
aVspoon
p499
aVnoisy
p500
a.