(lp0
Vgreat
p1
aVwas
p2
aVa great
p3
aVnot
p4
aVno
p5
aVdelicious
p6
aVthe best
p7
aVperfect
p8
aVasked
p9
aVbest
p10
aVamazing
p11
aVwere
p12
aVtold
p13
aVnothing
p14
aVlove
p15
aVmoney
p16
aVminutes
p17
aVok
p18
aVoverpriced
p19
aVwould
p20
aVdidn t
p21
aVdidn
p22
aVawesome
p23
aVsaid
p24
aVordered
p25
aVmaybe
p26
aVover
p27
aVclean and
p28
aVworst
p29
aVbe
p30
aVwaited
p31
aVshould
p32
aVperfectly
p33
aVasked for
p34
aVshe
p35
aVcame
p36
aVnot worth
p37
aVto be
p38
aVnot good
p39
aVis a
p40
aVterrible
p41
aVsomeone
p42
aVbad
p43
aVwill not
p44
aVthen
p45
aVbill
p46
aVexcellent
p47
aVhad to
p48
aVtook
p49
aVi love
p50
aVthe worst
p51
aValways
p52
aVlater
p53
aVfun
p54
aVanother
p55
aVwrong
p56
aVreviews
p57
aVfavorite
p58
aVt even
p59
aVsuper
p60
aVshould have
p61
aVwonderful
p62
aVafter
p63
aVnor
p64
aVawful
p65
aVleft
p66
aVbecause
p67
aVfriendly
p68
aVwhen
p69
aVwhat
p70
aVwas not
p71
aVwhy
p72
aVwait to
p73
aVi won
p74
aVfantastic
p75
aVagain
p76
aV1
p77
aVt wait
p78
aVcharged
p79
aV5 stars
p80
aVvery disappointed
p81
aVt
p82
aVpoor
p83
aVhorrible
p84
aVbefore
p85
aVi asked
p86
aVworse
p87
aVdisappointed
p88
aVdefinitely
p89
aVdirty
p90
aVcharge
p91
aVcould
p92
aVmess
p93
aVunfortunately
p94
aVit would
p95
aVt be
p96
aVtwo
p97
aVup
p98
aVthey didn
p99
aVsupposed
p100
aVi told
p101
aVi was
p102
aV2
p103
aVnot be
p104
aVinstead
p105
aVcrap
p106
aVmistake
p107
aVcustomer
p108
aVcompletely
p109
aVsupposed to
p110
aVcold
p111
aVis
p112
aVhighly recommend
p113
aVlooked
p114
aVis awesome
p115
aVand left
p116
aVtold me
p117
aVreason
p118
aVi don
p119
aVpaid
p120
aVwasn t
p121
aVwasn
p122
aVwould not
p123
aVmaybe it
p124
aVserver
p125
aVwent
p126
aVoff
p127
aVonly to
p128
aVwon t
p129
aVshame
p130
aVthought
p131
aVthey were
p132
aVdon t
p133
aVdon
p134
aVperfect for
p135
aVi paid
p136
aVreturn
p137
aVdry
p138
aVmy favorite
p139
aVaverage
p140
aVher
p141
aVcustomers
p142
aVwanted
p143
aVto write
p144
aVbelow
p145
aVwrite
p146
aVsorry
p147
aVgood but
p148
aVwas perfect
p149
aVthey said
p150
aVnot recommend
p151
aVlisten
p152
aVfresh
p153
aVwould have
p154
aVwanted to
p155
aVordered a
p156
aVfor them
p157
aVonly complaint
p158
aVis fantastic
p159
aVthe bill
p160
aVthem
p161
aVwon
p162
aVand no
p163
aVtried to
p164
aVto tell
p165
aVhim
p166
aVi ordered
p167
aVpay
p168
aVeverything is
p169
aVa must
p170
aVout
p171
aVsaid they
p172
aVonly
p173
aVbusiness
p174
aVit took
p175
aVflavorful
p176
aVnot even
p177
aVbetter
p178
aVfood
p179
aVthe wrong
p180
aVonly reason
p181
aVcame back
p182
aVdid not
p183
aVus
p184
aVorder
p185
aVhelpful
p186
aVbest i
p187
aVyou feel
p188
aVlove that
p189
aVa perfect
p190
aVheaven
p191
aVdisappointment
p192
aVat best
p193
aVme
p194
aVshe said
p195
aVis one
p196
aVhighly
p197
aVlike they
p198
aVdisappointing
p199
aVan
p200
aVdown
p201
aVout of
p202
aVdone
p203
aVhe
p204
aVyummy
p205
aVwas told
p206
aVselection
p207
aVcall
p208
aVone star
p209
aVnone of
p210
aVincredible
p211
aVvariety
p212
aVthis point
p213
aVgo wrong
p214
aVeasy to
p215
aVdefinitely worth
p216
aVbe returning
p217
aVabout 5
p218
aVwoman
p219
aVreturning
p220
aV45
p221
aVnice
p222
aVwill never
p223
aVtough
p224
aV20 minutes
p225
aV15 minutes
p226
aVcame out
p227
aVhad
p228
aVhe was
p229
aVso i
p230
aVat
p231
aVsweet
p232
aVphone
p233
aVto serve
p234
aVcouldn t
p235
aVcouldn
p236
aVbarely
p237
aVare
p238
aVthere were
p239
aVlove the
p240
aVis great
p241
aVwas supposed
p242
aVin love
p243
aVhas no
p244
aVdesired
p245
aVcalls
p246
aVminutes for
p247
aV10 minutes
p248
aVguys
p249
aVfinally
p250
aVminutes to
p251
aVsolid
p252
aVare great
p253
aVuncomfortable
p254
aVluck
p255
aVas well
p256
aVthey have
p257
aVobvious
p258
aVnasty
p259
aVlisten to
p260
aVjust right
p261
aVdry and
p262
aVdefinitely be
p263
aVi should
p264
aVcustomer service
p265
aVif
p266
aVnever
p267
aVline
p268
aVenjoyed
p269
aVput
p270
aVview
p271
aVthe reviews
p272
aVsucks
p273
aVlooked at
p274
aVbunch
p275
aVnoticed
p276
aVgiven
p277
aVand then
p278
aVs a
p279
aVsat
p280
aVto return
p281
aVtell me
p282
aVsituation
p283
aVseveral times
p284
aVno one
p285
aVelsewhere
p286
aVok but
p287
aV1 2
p288
aVexcited to
p289
aVcan
p290
aVthe kitchen
p291
aVwhatsoever
p292
aVwas wrong
p293
aVveggies and
p294
aVthe different
p295
aVso be
p296
aVrefund
p297
aVinto it
p298
aVbecause she
p299
aValways get
p300
aVroom for
p301
aVme my
p302
aVfabulous
p303
aVthere was
p304
aVlong
p305
aVclean
p306
aVokay
p307
aVthis i
p308
aVon you
p309
aVof money
p310
aVnuts
p311
aVlol
p312
aVleast i
p313
aVdiscovered
p314
aVcalling
p315
aVback to
p316
aVwith no
p317
aVbeing
p318
aVthat the
p319
aVour
p320
aVwill definitely
p321
aVnot go
p322
aVbunch of
p323
aVhappened
p324
aVback
p325
aVshould be
p326
aVtasted
p327
aVcalled
p328
aVcheck out
p329
aVhowever
p330
aVreturned
p331
aVneither
p332
aVthat
p333
aVthe phone
p334
aVgot
p335
aVwould be
p336
aVhouse
p337
aVi went
p338
aVlove this
p339
aVi said
p340
aVt know
p341
aVi ve
p342
aVeven
p343
aVto pay
p344
aVyour money
p345
aVwas about
p346
aVt care
p347
aVput the
p348
aVamazing i
p349
aVand she
p350
aVthey could
p351
aVwas great
p352
aVslow
p353
aVtotal
p354
aVtip
p355
aVi didn
p356
aVtell
p357
aVsome of
p358
aVyour time
p359
aVwaste of
p360
aVthe exact
p361
aVsoaked
p362
aVrich and
p363
aVplacing
p364
aVmoney back
p365
aVlousy
p366
aVlater and
p367
aVexcellent the
p368
aVcertainly not
p369
aVcan take
p370
aVbananas
p371
aVbadly
p372
aVawesome i
p373
aVan average
p374
aVa fantastic
p375
aVget
p376
aVstar
p377
aVvery reasonable
p378
aVthe poor
p379
aVnot one
p380
aVminutes before
p381
aVbetter and
p382
aVbe so
p383
aVa shame
p384
aVunderstand
p385
aVthink
p386
aVgone
p387
aVdo not
p388
aVexcited
p389
aVnearly
p390
aVdoes not
p391
aVstanding
p392
aVone was
p393
aVjoke
p394
aV1 star
p395
aVi wanted
p396
aVguy
p397
aVthat was
p398
aVhappy to
p399
aVtold that
p400
aVten
p401
aVlove it
p402
aVa restaurant
p403
aVthe table
p404
aVbeautiful
p405
aVto give
p406
aVor
p407
aVthere for
p408
aVdid
p409
aVthis was
p410
aVyou can
p411
aVchoose
p412
aVarea
p413
aVmakes
p414
aVdecided
p415
aVi would
p416
aVuntil
p417
aVbecause the
p418
aVit wasn
p419
aVand was
p420
aVa new
p421
aVway
p422
aVwish
p423
aVis always
p424
aVso good
p425
aVhave no
p426
aVto like
p427
aVthe red
p428
aVi looked
p429
aVi highly
p430
aVcontact
p431
aVafter that
p432
aVwe were
p433
aVhappy
p434
aVthey
p435
aVto
p436
aVyou go
p437
aVflavors
p438
aVgoing
p439
aV15
p440
aVfood i
p441
aVthe next
p442
aVempty
p443
aVif we
p444
aVsaid that
p445
aVobviously
p446
aVmy order
p447
aVspeak
p448
aVmuch to
p449
aVit might
p450
aVhere the
p451
aVdefinitely not
p452
aVbother
p453
aVa bunch
p454
aVmuch
p455
aVwell worth
p456
aVtop notch
p457
aVto even
p458
aVsome reason
p459
aVright amount
p460
aVrelatively
p461
aVreceipt
p462
aVnotch
p463
aVneat
p464
aVi expect
p465
aVfor good
p466
aVfailed
p467
aVeven better
p468
aVcomfy
p469
aVcheeses
p470
aValways a
p471
aVdo
p472
aVprobably
p473
aVt that
p474
aVhoping
p475
aV40
p476
aVif they
p477
aVi had
p478
aVvariety of
p479
aVthe perfect
p480
aVis definitely
p481
aVhardly
p482
aVgive me
p483
aVforever
p484
aVcozy
p485
aVcould get
p486
aVworse than
p487
aVwas making
p488
aVto agree
p489
aVthe review
p490
aVso nice
p491
aVretro
p492
aVprovides
p493
aVprinted
p494
aVpricey but
p495
aVpaid for
p496
aVneck
p497
aVmom and
p498
aVit more
p499
aVis wonderful
p500
a.