(lp0
Veasy
p1
aVlove
p2
aVgreat
p3
aVeasy to
p4
aVnot
p5
aVbest
p6
aVi love
p7
aVwas
p8
aVlove this
p9
aVexcellent
p10
aVperfect
p11
aVlove it
p12
aVwaste
p13
aVpoor
p14
aVreturned
p15
aVyour money
p16
aVafter
p17
aVthe best
p18
aVdisappointed
p19
aVbroke
p20
aVreturn
p21
aVclean
p22
aVvery disappointed
p23
aVback
p24
aVterrible
p25
aVhorrible
p26
aVlittle
p27
aVdisappointment
p28
aVworst
p29
aVi was
p30
aVwould not
p31
aVso far
p32
aVgreat for
p33
aVreturning
p34
aVpoorly
p35
aVdisappointing
p36
aVnot recommend
p37
aVawesome
p38
aVthis is
p39
aVtried to
p40
aVfavorite
p41
aVmoney
p42
aVworks
p43
aVstarted
p44
aVhighly
p45
aVa great
p46
aVtold
p47
aVis not
p48
aVperfect for
p49
aVcooking
p50
aVvalue
p51
aVsize
p52
aVve
p53
aVthe worst
p54
aVit was
p55
aVnot worth
p56
aVfantastic
p57
aVhighly recommend
p58
aVis perfect
p59
aVperfectly
p60
aVworked
p61
aVall over
p62
aVagain
p63
aVon this
p64
aVdo not
p65
aVbad
p66
aVtried
p67
aVi ve
p68
aVloves
p69
aVcan be
p70
aVyou can
p71
aVwas told
p72
aVstarted to
p73
aVlarge
p74
aVcalled
p75
aVdoes not
p76
aVunfortunately
p77
aVof money
p78
aVbutter
p79
aVit s
p80
aVand you
p81
aVa must
p82
aVbuy
p83
aVtook
p84
aVstopped
p85
aVfirst
p86
aVcheap
p87
aVpleased
p88
aVthought
p89
aVprice
p90
aVbeautifully
p91
aVamazing
p92
aVi called
p93
aVcan
p94
aVis great
p95
aVfamily
p96
aVi loved
p97
aVgreat value
p98
aVand clean
p99
aVdid not
p100
aVmy favorite
p101
aVwonderful
p102
aVafter the
p103
aVwell worth
p104
aVimpossible to
p105
aVcustomer
p106
aVuse
p107
aVservice
p108
aVneed
p109
aVwas not
p110
aVve never
p111
aVhalf the
p112
aVgreat little
p113
aVidea
p114
aVweeks
p115
aVstores
p116
aVpleased with
p117
aVworry about
p118
aVan excellent
p119
aVwork
p120
aVabsolutely
p121
aVthe
p122
aVspace
p123
aVheavy
p124
aVi bought
p125
aVoff
p126
aVwould
p127
aVnot even
p128
aVi highly
p129
aVbut
p130
aVthe price
p131
aVsave
p132
aVi tried
p133
aVa little
p134
aVthe long
p135
aVplenty
p136
aVmuch i
p137
aVi absolutely
p138
aVefficient
p139
aVawful
p140
aVworse
p141
aVt work
p142
aVthe only
p143
aVthe same
p144
aVto return
p145
aVgreat and
p146
aVfabulous
p147
aVevery
p148
aVget
p149
aVmy money
p150
aVfailed
p151
aVi thought
p152
aVback to
p153
aVadd
p154
aVthe first
p155
aVfriends
p156
aVare great
p157
aVwell
p158
aVbroken
p159
aVlove the
p160
aVpurchasing
p161
aVsend
p162
aVkeeps
p163
aVthere
p164
aVthought that
p165
aVthin and
p166
aVshame
p167
aVoutstanding
p168
aVor you
p169
aVnever been
p170
aVmaybe i
p171
aVi ended
p172
aVhomemade
p173
aVcrap
p174
aVa disappointment
p175
aV90
p176
aVworry
p177
aVeverywhere
p178
aVbeat
p179
aVcustomer service
p180
aVwhen it
p181
aVwhat
p182
aVquickly and
p183
aVto use
p184
aVit a
p185
aVfar
p186
aVcomes
p187
aVwhere the
p188
aVthought it
p189
aVcomfortable
p190
aVburned
p191
aVand are
p192
aV3
p193
aVfrom
p194
aVs
p195
aVimpossible
p196
aVsimple
p197
aVnicely
p198
aVexcited
p199
aVmonths
p200
aVbeing
p201
aVthe past
p202
aVi should
p203
aVconvenient
p204
aVt have
p205
aVfirst time
p206
aVshould
p207
aVplenty of
p208
aVone star
p209
aVit made
p210
aVinformation
p211
aVgoing back
p212
aVfirst and
p213
aVchops
p214
aVbeat the
p215
aV1 star
p216
aVand is
p217
aVkitchen
p218
aVway too
p219
aVnot what
p220
aVgrounds
p221
aVbeautiful and
p222
aVback and
p223
aVabsolutely love
p224
aVthen
p225
aVworking
p226
aVnow and
p227
aVpain
p228
aVfrench
p229
aVthe most
p230
aVlarger
p231
aVand easy
p232
aVis a
p233
aVweak
p234
aVstir
p235
aVsame
p236
aVfrom a
p237
aVof the
p238
aVneed to
p239
aVa new
p240
aVno more
p241
aVbarely
p242
aVwas very
p243
aVdifficult to
p244
aVclean and
p245
aVa large
p246
aVit took
p247
aVand had
p248
aVand for
p249
aVunique
p250
a.