(lp0
Vgreat
p1
aVexcellent
p2
aVprice
p3
aVperfect
p4
aVreturn
p5
aVterrible
p6
aVafter
p7
aVwaste
p8
aVnot
p9
aVt work
p10
aVhighly
p11
aVwork
p12
aVthe best
p13
aVa great
p14
aVback
p15
aVit back
p16
aVthe price
p17
aVpoor
p18
aVvery good
p19
aVeasy to
p20
aVgood
p21
aVworst
p22
aVeasy
p23
aVreturned
p24
aVnot worth
p25
aVsmall
p26
aVsend
p27
aVbest
p28
aVbit
p29
aVprice i
p30
aVvalue
p31
aVworked
p32
aVhighly recommend
p33
aVsupport
p34
aVcustomer service
p35
aVi called
p36
aVbeware
p37
aVi love
p38
aVa bit
p39
aVhorrible
p40
aVyour money
p41
aVlittle
p42
aVto return
p43
aVunfortunately
p44
aVtold
p45
aVt
p46
aVbad
p47
aVdisappointing
p48
aVis excellent
p49
aVgreat value
p50
aVuse
p51
aVperfect for
p52
aVworse
p53
aVa little
p54
aVtried to
p55
aVno way
p56
aVi highly
p57
aVcalled
p58
aVbeat
p59
aVthe worst
p60
aVreturning
p61
aVfast
p62
aVmistake
p63
aVlove
p64
aVcompany
p65
aVworking
p66
aVspace
p67
aVdisappointed
p68
aVstopped
p69
aVlove it
p70
aVcustomer
p71
aVis perfect
p72
aVbut
p73
aVa different
p74
aVsucks
p75
aVget
p76
aVnot recommend
p77
aVpretty
p78
aVhelp
p79
aVpleased
p80
aVworks
p81
aVand got
p82
aVi tried
p83
aVto work
p84
aVvery happy
p85
aVwould not
p86
aVthen
p87
aVmovies
p88
aVcould not
p89
aVdid not
p90
aVsent
p91
aVgreat i
p92
aVat all
p93
aVnow i
p94
aVhad to
p95
aVanother
p96
aVtold me
p97
aVpleased with
p98
aVagain
p99
aVfor the
p100
aVstarted
p101
aVthe problem
p102
aVthe first
p103
aVitem
p104
aVawesome
p105
aVthe only
p106
aVyour time
p107
aVvery disappointed
p108
aVis now
p109
aVi try
p110
aVexcited
p111
aVso far
p112
aVthe
p113
aVwonderful
p114
aVstay away
p115
aVdoes not
p116
aVused
p117
aVtried
p118
aVproperly
p119
aVoverall
p120
aVt even
p121
aVexpected
p122
aVprice and
p123
aVa small
p124
aVso bad
p125
aVs very
p126
aVnot good
p127
aVdisappointed in
p128
aVcan also
p129
aVhappy with
p130
aVwork i
p131
aVsmall and
p132
aVan excellent
p133
aVand then
p134
aVsound
p135
aVmonths
p136
aVweeks
p137
aVmoney
p138
aVdon t
p139
aVdon
p140
aVi will
p141
aVsimple
p142
aVtry
p143
aVthis time
p144
aVthe person
p145
aVa major
p146
aVto get
p147
aVthey
p148
aVof money
p149
aVme
p150
aVbass
p151
aVt recommend
p152
aVgo wrong
p153
aVcrisp
p154
aVis a
p155
aVin it
p156
aVglad
p157
aVdo not
p158
aVtwo
p159
aVcomfortable
p160
aVi thought
p161
aVamazing
p162
aVminutes
p163
aVsatisfied
p164
aVvery well
p165
aVwhat was
p166
aVwalls
p167
aVtwo stars
p168
aVstuck with
p169
aVspoke
p170
aVhighly recommended
p171
aVfell
p172
aVbe returning
p173
aVand great
p174
aVto send
p175
aVpoorly
p176
aVi recommend
p177
aVfast and
p178
aVfantastic
p179
aVis great
p180
aVwell
p181
aVget it
p182
aVwouldn t
p183
aVwouldn
p184
aVsize
p185
aVfloor
p186
aVs a
p187
aVback to
p188
aVsaid
p189
aVme that
p190
aVit just
p191
aVguess
p192
aVas good
p193
aVminor
p194
aVdifferent
p195
aVgood as
p196
aVget a
p197
aVtheir
p198
aVwill
p199
aVsomething else
p200
aVprovides
p201
aVcomment
p202
aVi could
p203
aVvery impressed
p204
aVto help
p205
aVtheater
p206
aVthe very
p207
aVt beat
p208
aVstudio
p209
aVno complaints
p210
aVgreat to
p211
aVdisappointment
p212
aVbest of
p213
aVa must
p214
aVfor your
p215
aVbuy
p216
aVt go
p217
aVoutstanding
p218
aVglad i
p219
aVyou can
p220
aVnice
p221
aVgot a
p222
aVcompared
p223
aVstuck
p224
aVfor those
p225
aVit
p226
aVwas not
p227
aVmy only
p228
aVwill not
p229
aVfeature
p230
aVt get
p231
aValso
p232
aVworry
p233
aVagainst
p234
aVyear
p235
aVwork with
p236
aVpictures
p237
aVin all
p238
aVto use
p239
aVthose
p240
aVfirst
p241
aVdays
p242
aVpiece
p243
aVjob
p244
aVthe original
p245
aVtotal
p246
aVshould have
p247
aVevery time
p248
aVand after
p249
aVyou won
p250
aVthey told
p251
aVsized
p252
aVfix it
p253
aVdelivery
p254
aVcrap
p255
aVasked
p256
aV5 stars
p257
aVsomething
p258
aVwould take
p259
aVthis point
p260
aVterms
p261
aVspeaking
p262
aVsadly
p263
aVsad
p264
aVgot an
p265
aVd say
p266
aVbeat the
p267
aVawesome i
p268
aVand or
p269
aV32
p270
aVproblem
p271
aVextra
p272
aVa very
p273
aVhappy
p274
aVquality
p275
aVit to
p276
aVtime
p277
aVthan
p278
aVwere
p279
aVlooking for
p280
aVnot for
p281
aVmoving
p282
aVimpressed with
p283
aVgave me
p284
aV10
p285
aVrepair
p286
aVwhen it
p287
aVpiece of
p288
aVmaybe
p289
aVeasier
p290
aVwork at
p291
aVwas told
p292
aVsolid
p293
aVpretty good
p294
aVfaster
p295
aVawful
p296
aVagain and
p297
aVlove the
p298
aVgood and
p299
aVback in
p300
aVproducts
p301
aVeven
p302
aVwent
p303
aVuntil
p304
aVwould highly
p305
aVworry about
p306
aVtook it
p307
aVthey could
p308
aVjoke
p309
aVincredible
p310
aVby far
p311
aVand go
p312
aValso i
p313
aVa joke
p314
aVclear
p315
aVi get
p316
aVam very
p317
aVtrying
p318
aVnow
p319
aVworried
p320
aVwas excited
p321
aVthey gave
p322
aVthey didn
p323
aVthen they
p324
aVthat for
p325
aVterribly
p326
aVterms of
p327
aVt as
p328
aVsmart
p329
aVreally a
p330
aVpotential
p331
aVpink
p332
aVpacked
p333
aVoffering
p334
aVme they
p335
aVm glad
p336
aVit even
p337
aVis wonderful
p338
aVis awesome
p339
aVin terms
p340
aVi asked
p341
aVhour and
p342
aVhappened to
p343
aVgold
p344
aVget in
p345
aVfor 4
p346
aVeverything is
p347
aVenough and
p348
aVenglish
p349
aVdownside
p350
aVbut once
p351
aVaround a
p352
aVare also
p353
aVand quality
p354
aVa separate
p355
aV20 minutes
p356
aVas
p357
aVmessage
p358
aVis good
p359
aVout
p360
aVlisten
p361
aVnothing
p362
aVneed
p363
aVthey have
p364
aVpriced
p365
aVit did
p366
aVcompared to
p367
aVservice
p368
aVit would
p369
aVsame
p370
aVwide
p371
aVvery comfortable
p372
aVlook at
p373
aVan hour
p374
aVnow it
p375
aVit didn
p376
aVthought
p377
aVuse it
p378
aVgiven
p379
aVstay
p380
aVthan i
p381
aVstation
p382
aVslightly
p383
aVi put
p384
aVbroken
p385
aVappears
p386
aVwell the
p387
aVmy money
p388
aVmoney and
p389
aVit only
p390
aVbuilt
p391
aVdoesn t
p392
aVdoesn
p393
aVthe top
p394
aVhad no
p395
aVto
p396
aVwas
p397
aVno
p398
aVafter a
p399
aVfailed
p400
aVdead
p401
aVi ve
p402
aVtell
p403
aVwithin the
p404
aVwas wrong
p405
aVto avoid
p406
aVspare
p407
aVsomeone who
p408
aVridiculous
p409
aVis worth
p410
aVgood job
p411
aVcup
p412
aVve
p413
aVwhen i
p414
aVquite
p415
aVoriginal
p416
aVhope
p417
aVi received
p418
aVas you
p419
aVcharge
p420
aVfar
p421
aVnicely
p422
aVmay be
p423
aVhigh quality
p424
aVare great
p425
aVyellow
p426
aVwill find
p427
aVwhat happened
p428
aVwas extremely
p429
aVunfortunately i
p430
aVthough they
p431
aVthese days
p432
aVthat many
p433
aVthat and
p434
aVt tried
p435
aVsuck
p436
aVstarted to
p437
aVspace and
p438
aVside and
p439
aVs also
p440
aVright next
p441
aVoff a
p442
aVnice touch
p443
aVnext time
p444
aVminutes and
p445
aVmaybe they
p446
aVmanaged
p447
aVmade and
p448
aVis as
p449
aVi prefer
p450
aVhours and
p451
aVhave is
p452
aVhad just
p453
aVgot me
p454
aVget any
p455
aVforgot
p456
aVfor just
p457
aVexcellent and
p458
aVevery other
p459
aVdefinitely recommend
p460
aVbut nothing
p461
aVbut never
p462
aVattempt to
p463
aVat some
p464
aVasked me
p465
aVare going
p466
aVand well
p467
aValso like
p468
aValso have
p469
aValso a
p470
aV30 minutes
p471
aV1st
p472
aVthat are
p473
aVlisten to
p474
aVgreat for
p475
aVare the
p476
aVreasonably
p477
aVprice was
p478
aVprefer
p479
aVgood to
p480
aVexactly what
p481
aVcustomers
p482
aVcan not
p483
aVbefore it
p484
aVsaying
p485
aVopinion
p486
aVit looks
p487
aVfound the
p488
aVchanged
p489
aVbut with
p490
aVbit of
p491
aVaddress
p492
aVadditional
p493
aVwas looking
p494
aVtime with
p495
aVthe store
p496
aVthat has
p497
aVsurprised
p498
aVsub
p499
aVsame thing
p500
a.