(lp0
Vworst
p1
aVbad
p2
aVwaste
p3
aVthe worst
p4
aVgreat
p5
aVboring
p6
aVawful
p7
aVexcellent
p8
aVa must
p9
aVhorrible
p10
aVis a
p11
aVa great
p12
aVbest
p13
aVwonderful
p14
aVnot worth
p15
aVlove
p16
aVthe best
p17
aVyour money
p18
aVfamily
p19
aVwell
p20
aVterrible
p21
aVlame
p22
aVperfect
p23
aVstupid
p24
aVnot
p25
aVterrific
p26
aVcould have
p27
aVfun
p28
aVridiculous
p29
aValso
p30
aVi felt
p31
aValways
p32
aVworse
p33
aVyour time
p34
aVsucks
p35
aVwas
p36
aVas well
p37
aVpoor
p38
aV2 stars
p39
aVdisappointing
p40
aVdidn t
p41
aVdidn
p42
aValong with
p43
aVpoorly
p44
aVmoney
p45
aVhis
p46
aVstill
p47
aVno
p48
aVamazing
p49
aVa wonderful
p50
aVenjoy
p51
aVt
p52
aVsorry
p53
aVis still
p54
aVhighly recommended
p55
aVrecommended
p56
aVincludes
p57
aVreviews
p58
aVminutes
p59
aVgives
p60
aVsuperb
p61
aVyou won
p62
aVloved
p63
aVmust
p64
aVwhy
p65
aVfelt
p66
aVdisappointed
p67
aVwho has
p68
aVfantastic
p69
aVwho
p70
aVsupposed
p71
aVdisappointment
p72
aVthe only
p73
aVclassic
p74
aVsupposed to
p75
aVmen
p76
aVso bad
p77
aVruined
p78
aVneeds to
p79
aVloved it
p80
aVdelightful
p81
aVwill
p82
aVbudget
p83
aVthe great
p84
aVwith a
p85
aVcould
p86
aVis also
p87
aVenjoyed
p88
aVthey re
p89
aVintense
p90
aVgroup of
p91
aVmediocre
p92
aVi always
p93
aVor something
p94
aVrent
p95
aVseemed to
p96
aVdon t
p97
aVok
p98
aVhighly
p99
aVeach
p100
aVtakes
p101
aVyou ll
p102
aVhooked
p103
aVhave this
p104
aVcrappy
p105
aVmore like
p106
aVnot even
p107
aVlove the
p108
aVstrong
p109
aVmovie
p110
aVcrap
p111
aVwell worth
p112
aVjust not
p113
aVintroduced
p114
aVgem
p115
aVpersonal
p116
aVis well
p117
aVthis is
p118
aVnothing
p119
aVan excellent
p120
aVsave
p121
aVdon
p122
aVjohn
p123
aVas the
p124
aVa very
p125
aVhours
p126
aValong
p127
aVstay away
p128
aVlevels
p129
aVdefinitely worth
p130
aV5 minutes
p131
aVlove it
p132
aVin your
p133
aVlot
p134
aVunfortunately
p135
aVread
p136
aVbad it
p137
aVpart of
p138
aVnot just
p139
aVfound the
p140
aVand some
p141
aVfor his
p142
aVlooks like
p143
aVflat
p144
aVwhat was
p145
aVlove this
p146
aVbest of
p147
aVbarely
p148
aVoutstanding
p149
aVa bunch
p150
aVone of
p151
aVand you
p152
aVwould
p153
aVwere
p154
aVfavorite
p155
aVan
p156
aVt even
p157
aVpaid
p158
aVthe old
p159
aVnamed
p160
aVin it
p161
aVwife
p162
aVwood
p163
aVthan any
p164
aVsomething else
p165
aVperfect for
p166
aVnot recommend
p167
aVi purchased
p168
aVhealth
p169
aVhad never
p170
aVexceptional
p171
aVexcellent and
p172
aVadore
p173
aVa solid
p174
aVa look
p175
aVa favor
p176
aV3 4
p177
aVto write
p178
aVthe night
p179
aVseconds
p180
aVs great
p181
aVregret
p182
aVreally enjoyed
p183
aVi highly
p184
aVhours of
p185
aVgold
p186
aVd rather
p187
aVare still
p188
aVaddition to
p189
aVa fun
p190
aVgreatest
p191
aVnothing to
p192
aVabove
p193
aVfavorites
p194
aVa perfect
p195
aVday
p196
aVi was
p197
aVbeautifully
p198
aVthree
p199
aVwant
p200
aVturned
p201
aVas he
p202
aVb
p203
aVseason
p204
aVman
p205
aVyou want
p206
aVson
p207
aVtimes
p208
aVwithin
p209
aVamong
p210
aVwinner
p211
aVregular
p212
aVin front
p213
aVa fantastic
p214
aVi loved
p215
aVanyone who
p216
aVbetter
p217
aVboth
p218
aVsong
p219
aVi first
p220
aVfully
p221
aVwhat this
p222
aVone day
p223
aVof each
p224
aVmy money
p225
aVmaybe i
p226
aVfavor
p227
aVand enjoy
p228
aVand his
p229
aVwell done
p230
aVother than
p231
aVon the
p232
aVi enjoyed
p233
aVus
p234
aVunexpected
p235
aVtwo stars
p236
aVthere the
p237
aVspoiled
p238
aVrefreshing
p239
aVpast the
p240
aVof fun
p241
aVfavor and
p242
aVchicago
p243
aVbut nothing
p244
aVi got
p245
aVmean
p246
aVi didn
p247
aVyoung
p248
aVand he
p249
aVfeatures
p250
aVworld
p251
aVor
p252
aVrecommend this
p253
aVcity
p254
aVonly
p255
aVa lot
p256
aVi
p257
aVinstead
p258
aVour
p259
aVplayed
p260
aVlot of
p261
aVsweet
p262
aVall time
p263
aVt bother
p264
aVreally bad
p265
aVrare
p266
aVonly reason
p267
aVis truly
p268
aVgoing for
p269
aVbunch
p270
aVto your
p271
aVloves
p272
aVfront
p273
aVnew
p274
aVshould have
p275
aVlooked
p276
aVfirst
p277
aVbetter than
p278
aVyou haven
p279
aVstill a
p280
aVprocess
p281
aVis excellent
p282
aVhighly recommend
p283
aVdelight
p284
aVclub
p285
aVis an
p286
aVcheap
p287
aVdo not
p288
aVpotential
p289
aVof our
p290
aVcheesy
p291
aVso
p292
aVhe is
p293
aVgroup
p294
aVtest
p295
aVreason to
p296
aVis awesome
p297
aVfor everyone
p298
aVfive stars
p299
aVa disappointment
p300
aVjack
p301
aVbunch of
p302
aVbut the
p303
aVwith her
p304
aVit in
p305
aVdo
p306
aVwonderful and
p307
aVwas still
p308
aVtrail
p309
aVthey used
p310
aVt stop
p311
aVst
p312
aVs nice
p313
aVover it
p314
aVnot what
p315
aVis wonderful
p316
aVhaving to
p317
aVdelicious
p318
aVcoming to
p319
aVbrought to
p320
aVblah
p321
aVagain for
p322
aVadditional
p323
aVa hit
p324
aVdoes not
p325
aVview
p326
aVtoday
p327
aVparticular
p328
aVmy favorite
p329
aVread the
p330
aVmust have
p331
aVwill find
p332
aVshouldn t
p333
aVshouldn
p334
aVone star
p335
aVi tried
p336
aVexcuse
p337
aVempty
p338
aVyears
p339
aVproblem
p340
aVworks
p341
aVage
p342
aVthe three
p343
aVsolid
p344
aVlovers
p345
aVlikes
p346
aVlet me
p347
aVbother
p348
aVpower
p349
aVadd
p350
aVshe is
p351
aVoff
p352
aVwent to
p353
aVthey could
p354
aVlook like
p355
aVit will
p356
aVhands
p357
aVdream
p358
aVthe family
p359
aVsmart
p360
aVof money
p361
aVjoke
p362
aVfront of
p363
aVset
p364
aVleast
p365
aVat least
p366
aVll
p367
aVcare
p368
aVthinking
p369
aVcollection
p370
aVenjoyable
p371
aVbeautiful
p372
aVable to
p373
aVbut
p374
aVwho can
p375
aVwhat to
p376
aVwe had
p377
aVup at
p378
aVtraditional
p379
aVtimes i
p380
aVthe the
p381
aVt much
p382
aVsteal
p383
aVsay this
p384
aVreally really
p385
aVpretentious
p386
aVok but
p387
aVmy time
p388
aVlike he
p389
aVgolden
p390
aVfamily and
p391
aVcontemporary
p392
aVboot
p393
aVbecause there
p394
aVeither
p395
aVlike a
p396
aVlet
p397
aVbook
p398
aVwhose
p399
aVt make
p400
aVproduct
p401
aVvery well
p402
aVlaw
p403
aVfell
p404
aVand its
p405
aVand an
p406
aVdays
p407
aVbeen a
p408
aVable
p409
aVhas been
p410
aVhusband
p411
aVin love
p412
aVmaybe
p413
aVuntil
p414
aVimpressive
p415
aValso a
p416
aVown
p417
aVwould do
p418
aVwithin a
p419
aVwas over
p420
aVvintage
p421
aVup my
p422
aVto boot
p423
aVthey use
p424
aVswear
p425
aVsorts
p426
aVsomething different
p427
aVso there
p428
aVsearching
p429
aVs is
p430
aVs definitely
p431
aVre going
p432
aVorders
p433
aVoccasion
p434
aVnext day
p435
aVneeded a
p436
aVmy favorites
p437
aVmy family
p438
aVlos
p439
aVlooking to
p440
aVlol
p441
aVit here
p442
aVi paid
p443
aVhope to
p444
aVhave their
p445
aVhang
p446
aVhalf the
p447
aVgo in
p448
aVfour stars
p449
aVeverything you
p450
aVcomfortable
p451
aVcombination of
p452
aVchose to
p453
aVby saying
p454
aVbad but
p455
aVattitude
p456
aVask for
p457
aVand family
p458
aVamazingly
p459
aVafter reading
p460
aVa deal
p461
aVbased on
p462
aVjob
p463
aVeventually
p464
aVtreat
p465
aVthing is
p466
aVsam
p467
aVreading the
p468
aVnot good
p469
aVmy only
p470
aVmid
p471
aVloved this
p472
aVi gave
p473
aVgorgeous
p474
aVbe disappointed
p475
aVand can
p476
aV1 star
p477
aVpeople
p478
aVwith that
p479
aVwant a
p480
aVthin
p481
aVus to
p482
aVtop notch
p483
aVtoo bad
p484
aVstands
p485
aVknow how
p486
aVgave it
p487
aVforgotten
p488
aVbland
p489
aVaware
p490
aVways
p491
aVbut he
p492
aVbehind the
p493
aVidea
p494
aVlast
p495
aVexcept
p496
aVand the
p497
aVwas really
p498
aVvalue
p499
aVt care
p500
a.