(lp0
Veasy
p1
aVeasy to
p2
aVgreat
p3
aVlove
p4
aVnot
p5
aVbest
p6
aVwaste
p7
aVwas
p8
aVexcellent
p9
aVi love
p10
aVclean
p11
aVthe best
p12
aVyour money
p13
aVlove this
p14
aVreturned
p15
aVperfect
p16
aVdisappointed
p17
aVlove it
p18
aVbroke
p19
aVpoor
p20
aVreturn
p21
aVa great
p22
aVso far
p23
aVafter
p24
aVback
p25
aVdisappointment
p26
aVlittle
p27
aVdisappointing
p28
aVtried to
p29
aVreturning
p30
aVhorrible
p31
aVvalue
p32
aVgreat for
p33
aVdo not
p34
aVworst
p35
aVfavorite
p36
aVi was
p37
aVagain
p38
aVstarted
p39
aVawesome
p40
aVworks
p41
aVterrible
p42
aVt work
p43
aVbad
p44
aVsize
p45
aVvery disappointed
p46
aVyou can
p47
aVtried
p48
aVhighly
p49
aVthought
p50
aVi tried
p51
aVfar
p52
aVpoorly
p53
aVnot recommend
p54
aVtold
p55
aVnot worth
p56
aVstopped
p57
aVwould not
p58
aVcooking
p59
aVthis is
p60
aVworked
p61
aVbroken
p62
aVis not
p63
aVto return
p64
aVfamily
p65
aVstarted to
p66
aVis perfect
p67
aVfabulous
p68
aVof money
p69
aVbuy
p70
aVmoney
p71
aVwell
p72
aVloves
p73
aVabsolutely
p74
aVthe worst
p75
aVmy money
p76
aVan excellent
p77
aVneed
p78
aVwas not
p79
aVamazing
p80
aVmonths
p81
aVhighly recommend
p82
aVand easy
p83
aVwhat a
p84
aVi thought
p85
aVtimes
p86
aVunfortunately
p87
aVstores
p88
aVperfect for
p89
aVnice
p90
aVheavy
p91
aVi loved
p92
aVa disappointment
p93
aVve
p94
aVthe money
p95
aVthen
p96
aVlarge
p97
aVtime i
p98
aVand are
p99
aVmy favorite
p100
aVburned
p101
aVcheap
p102
aVprice
p103
aVthe first
p104
aVtook
p105
aVperfectly
p106
aVsizes
p107
aVgreat little
p108
aVa must
p109
aVwonderful
p110
aVbut
p111
aVit was
p112
aVwhat
p113
aVsend
p114
aVwell worth
p115
aVnot even
p116
aVare great
p117
aV2
p118
aVwork
p119
aV3
p120
aVand was
p121
aVexperience
p122
aVbit of
p123
aVcan be
p124
aVweeks
p125
aVi called
p126
aVfantastic
p127
aVzero
p128
aVs great
p129
aVhomemade
p130
aVadd
p131
aVa little
p132
aVimpossible to
p133
aVoff
p134
aVit took
p135
aVfollowed
p136
aVconvenient
p137
aVexcited
p138
aVdifficult to
p139
aVdifficult
p140
aVbit
p141
aVworking
p142
aVback to
p143
aVoff i
p144
aVnot only
p145
aVnicely
p146
aVyour time
p147
aVwas told
p148
aVtoo bad
p149
aVthought that
p150
aVplenty
p151
aVoutstanding
p152
aVinformation
p153
aVi absolutely
p154
aVcrap
p155
aV1 star
p156
aVcalled
p157
aVi ve
p158
aVelse
p159
aVwhere the
p160
aVbeautifully
p161
aVit would
p162
aVthought it
p163
aVpain
p164
aVmistake
p165
aVi should
p166
aVgreat value
p167
aVfailed
p168
aVdisappointed with
p169
aVdoes not
p170
aVquiet
p171
aVon this
p172
aVlarger
p173
aVwaiting for
p174
aVquiet and
p175
aVor you
p176
aVfeeling
p177
aVbusiness
p178
aVbest i
p179
aVfirst
p180
aVwaiting
p181
aVmonth
p182
aVquickly and
p183
aVkitchen
p184
aVfirst time
p185
aVa bit
p186
aVthere
p187
aVstir
p188
aVbutter
p189
aVthese
p190
aVthe second
p191
aVthe price
p192
aVis my
p193
aVthe only
p194
aVservice
p195
aVwould
p196
aVit s
p197
aVidea
p198
aVdidn t
p199
aVdidn
p200
aVshould
p201
aVand then
p202
aVfrom
p203
aVtold me
p204
aVthen it
p205
aVgreat and
p206
aVeverywhere
p207
aVwas very
p208
aVis great
p209
aVtomorrow
p210
aVto fix
p211
aVplenty of
p212
aVmaybe i
p213
aVis amazing
p214
aVefficient
p215
aVchops
p216
aVawful
p217
aVand well
p218
aV0
p219
aVsave
p220
aVand you
p221
aVthe same
p222
aVworry about
p223
aVto send
p224
aVnoisy
p225
aVbased on
p226
aVand clean
p227
aVabsolutely love
p228
aVsimple
p229
aVi highly
p230
aVa different
p231
aVimpossible
p232
aVcomfortable
p233
aVsecond
p234
aVif i
p235
aVgoing
p236
aVcan
p237
aVis a
p238
aVvery well
p239
aVaway
p240
aVcomes
p241
aVlove the
p242
aVa new
p243
aVyou will
p244
aVbuy a
p245
aVthrew
p246
aVthis little
p247
aVnot get
p248
aVno matter
p249
aVmay be
p250
aVfrench
p251
aVnow and
p252
aVinstead
p253
aVcustomer
p254
aVthe
p255
aVwould recommend
p256
aVtimes and
p257
aVspecial
p258
aVyou d
p259
aVway too
p260
aVremember
p261
aVbeautiful and
p262
aVbeat
p263
aVback and
p264
aVcomes with
p265
aVwould never
p266
aVwonderfully
p267
aVve found
p268
aVsure if
p269
aVshame
p270
aVreceive
p271
aVlarger than
p272
aVjust for
p273
aVit made
p274
aVi prefer
p275
aVhouse and
p276
aVfew times
p277
aVcoffee was
p278
aVbe disappointed
p279
aVawkward
p280
aVappreciate
p281
aVa family
p282
aV150
p283
aVt
p284
aVsame
p285
aVa nice
p286
aVtable
p287
aVi had
p288
aVyear
p289
aVown
p290
aVi used
p291
aVall over
p292
aVreplace
p293
aVwithin
p294
aVand very
p295
aVneed to
p296
aVyou know
p297
aVworry
p298
aVuntil
p299
aVcompany
p300
aVand
p301
aVfact that
p302
aVenjoy
p303
aVnot very
p304
aVneed a
p305
aVit only
p306
aVhope
p307
aVthe problem
p308
aVmay
p309
aVfriends
p310
aVwere
p311
aVeven
p312
aVwarning
p313
aVunique
p314
aVto all
p315
aVthin and
p316
aVsay i
p317
aVincluded
p318
aVimpressed with
p319
aVends
p320
aVbaby
p321
aVand its
p322
aVi like
p323
aVstar
p324
aVit back
p325
aVwrote
p326
aVwe thought
p327
aVwas only
p328
aVwas in
p329
aVvery comfortable
p330
aVunfortunately i
p331
aVthey come
p332
aVthe pasta
p333
aVstood
p334
aVsomeone else
p335
aVs too
p336
aVs also
p337
aVor in
p338
aVon me
p339
aVok but
p340
aVoff a
p341
aVliked it
p342
aVjoke
p343
aVis fine
p344
aVhow can
p345
aVhave in
p346
aVgreat job
p347
aVfunny
p348
aVfinger
p349
aVdishes are
p350
aVcorn
p351
aVcomfortable and
p352
aVbut so
p353
aVbest of
p354
aVbeat the
p355
aVbad it
p356
aVattempt
p357
aVat an
p358
aVmachine
p359
aVreceived
p360
aVordered
p361
aVthinking
p362
aVthen i
p363
aVthe most
p364
aVproperly
p365
aVof your
p366
aVgreat but
p367
aVclean and
p368
aV1
p369
aVmakes
p370
aVpurchasing
p371
aVthe past
p372
aVpancakes
p373
aVi gave
p374
aVhad any
p375
aVfor something
p376
aVfor all
p377
aVended
p378
aVdisappointed in
p379
aVblue
p380
aVbased
p381
aVquick
p382
aVcompared to
p383
aVcome out
p384
aVof the
p385
aVfeature
p386
aVcustomer service
p387
aVpleased
p388
aVmost
p389
aVweak
p390
aVthought i
p391
aVsoup
p392
aVserving
p393
aVleaving
p394
aVimpressed
p395
aVto your
p396
aVthink i
p397
aVthan i
p398
aVit didn
p399
aVcollection
p400
aVaddition to
p401
aVhad to
p402
aVthat was
p403
aVless than
p404
aVeasier
p405
aVsent
p406
aVwish i
p407
aVkeeps
p408
aVany
p409
aVthe rice
p410
aVthe long
p411
aVt had
p412
aVso excited
p413
aVare better
p414
aVa total
p415
aVreviews
p416
aVis very
p417
aVplastic
p418
aVnoticed
p419
aVguess
p420
aVcompared
p421
aVget a
p422
aVi bought
p423
aVdon t
p424
aVdon
p425
aVtime
p426
aVspace
p427
aVi ll
p428
aVhalf
p429
aVsteam
p430
aVleft
p431
aVhave had
p432
aVprice i
p433
aVhis
p434
aVafter the
p435
aVout of
p436
aVwould highly
p437
aVwithin the
p438
aVwill try
p439
aVwas out
p440
aVwas all
p441
aVwarned
p442
aVwalk
p443
aVvs
p444
aVvia
p445
aVvariety of
p446
aVto call
p447
aVthis stuff
p448
aVthe typical
p449
aVthe reason
p450
aVthe actual
p451
aVthat to
p452
aVsure how
p453
aVstupid
p454
aVsee if
p455
aVsee a
p456
aVseasoning
p457
aVruined
p458
aVprovided
p459
aVordered a
p460
aVonion
p461
aVone more
p462
aVnot enough
p463
aVnormally
p464
aVneed it
p465
aVmeat and
p466
aVlucky
p467
aVll get
p468
aVlater i
p469
aVjust so
p470
aVinternet
p471
aVi ended
p472
aVi almost
p473
aVhopes
p474
aVhe is
p475
aVfavor and
p476
aVdefinitely recommend
p477
aVchecked
p478
aVcalled the
p479
aVbest part
p480
aVattempt to
p481
aVand try
p482
aVadds
p483
aVaddress
p484
aVadd a
p485
aVa quick
p486
aVa 2
p487
aVget
p488
aVve never
p489
aVsecond time
p490
aVmy only
p491
aVis too
p492
aVhighly recommended
p493
aVhear
p494
aVended up
p495
aV3 times
p496
aVhad
p497
aVand will
p498
aVbeautiful
p499
aVquality and
p500
a.